; Function Attrs: null_pointer_is_valid sspstrong uwtable
define internal i32 @dissect_nasdaq_soup(ptr noundef %0, ptr noundef %1, ptr noundef %2, ptr readnone captures(none) %3) #0 {
  %5 = alloca i32, align 4
  call void @llvm.lifetime.start.p0(i64 4, ptr nonnull %5) #3
  %6 = tail call zeroext i1 @tvb_offset_exists(ptr noundef %0, i32 noundef 0)
  br i1 %6, label %.lr.ph, label %._crit_edge

.lr.ph:                                           ; preds = %4
  %7 = getelementptr inbounds nuw i8, ptr %1, i64 328
  %8 = getelementptr inbounds nuw i8, ptr %1, i64 8
  br label %9

9:                                                ; preds = %.lr.ph, %dissect_nasdaq_soup_packet.exit
  %.038 = phi i32 [ 0, %.lr.ph ], [ %33, %dissect_nasdaq_soup_packet.exit ]
  %.03337 = phi i32 [ 0, %.lr.ph ], [ %97, %dissect_nasdaq_soup_packet.exit ]
  %10 = load i8, ptr @nasdaq_soup_desegment, align 1, !range !6, !noundef !7
  %11 = trunc nuw i8 %10 to i1
  br i1 %11, label %12, label %15

12:                                               ; preds = %9
  %13 = load i16, ptr %7, align 8
  %14 = icmp ne i16 %13, 0
  br label %15

15:                                               ; preds = %12, %9
  %16 = phi i1 [ false, %9 ], [ %14, %12 ]
  %17 = call i32 @tvb_find_line_end(ptr noundef %0, i32 noundef %.03337, i32 noundef -1, ptr noundef nonnull %5, i1 noundef zeroext %16)
  %18 = icmp eq i32 %17, -1
  br i1 %18, label %19, label %22

19:                                               ; preds = %15
  %20 = getelementptr inbounds nuw i8, ptr %1, i64 332
  store i32 %.03337, ptr %20, align 4
  %21 = getelementptr inbounds nuw i8, ptr %1, i64 336
  store i32 268435455, ptr %21, align 8
  br label %._crit_edge

22:                                               ; preds = %15
  %23 = call zeroext i8 @tvb_get_uint8(ptr noundef %0, i32 noundef %.03337)
  %cond = icmp eq i32 %.038, 0
  %24 = load ptr, ptr %8, align 8
  br i1 %cond, label %25, label %27

25:                                               ; preds = %22
  call void @col_set_str(ptr noundef %24, i32 noundef 35, ptr noundef nonnull @.str.41)
  %26 = load ptr, ptr %8, align 8
  call void @col_clear(ptr noundef %26, i32 noundef 25)
  br label %29

27:                                               ; preds = %22
  call void @col_append_str(ptr noundef %24, i32 noundef 25, ptr noundef nonnull @.str.42)
  %28 = load ptr, ptr %8, align 8
  call void @col_set_fence(ptr noundef %28, i32 noundef 25)
  br label %29

29:                                               ; preds = %25, %27
  %30 = load ptr, ptr %8, align 8
  %31 = zext i8 %23 to i32
  %32 = call ptr @val_to_str(i32 noundef %31, ptr noundef nonnull @message_types_val, ptr noundef nonnull @.str.43)
  call void @col_append_str(ptr noundef %30, i32 noundef 25, ptr noundef %32)
  %33 = add i32 %.038, 1
  %34 = load i32, ptr @proto_nasdaq_soup, align 4
  %35 = add nuw i32 %17, 1
  %36 = call ptr @proto_tree_add_item(ptr noundef %2, i32 noundef %34, ptr noundef %0, i32 noundef %.03337, i32 noundef %35, i32 noundef 0)
  %37 = load i32, ptr @ett_nasdaq_soup, align 4
  %38 = call ptr @proto_item_add_subtree(ptr noundef %36, i32 noundef %37)
  %39 = call zeroext i8 @tvb_get_uint8(ptr noundef %0, i32 noundef %.03337)
  %40 = load i32, ptr @hf_nasdaq_soup_packet_type, align 4
  %41 = call ptr @proto_tree_add_item(ptr noundef %38, i32 noundef %40, ptr noundef %0, i32 noundef %.03337, i32 noundef 1, i32 noundef 0)
  %42 = add i32 %.03337, 1
  switch i8 %39, label %83 [
    i8 43, label %43
    i8 65, label %48
    i8 74, label %55
    i8 85, label %59
    i8 83, label %59
    i8 76, label %70
    i8 72, label %.thread.i
    i8 79, label %.thread.i
    i8 82, label %.thread.i
  ]

43:                                               ; preds = %29
  %44 = load i32, ptr @hf_nasdaq_soup_text, align 4
  %45 = add i32 %17, -1
  %46 = call ptr @proto_tree_add_item(ptr noundef %38, i32 noundef %44, ptr noundef %0, i32 noundef %42, i32 noundef %45, i32 noundef 0)
  %47 = add i32 %17, %.03337
  br label %.thread.i

48:                                               ; preds = %29
  %49 = load i32, ptr @hf_nasdaq_soup_session, align 4
  %50 = call ptr @proto_tree_add_item(ptr noundef %38, i32 noundef %49, ptr noundef %0, i32 noundef %42, i32 noundef 10, i32 noundef 0)
  %51 = add i32 %.03337, 11
  %52 = load i32, ptr @hf_nasdaq_soup_seq_number, align 4
  %53 = call ptr @proto_tree_add_item(ptr noundef %38, i32 noundef %52, ptr noundef %0, i32 noundef %51, i32 noundef 10, i32 noundef 0)
  %54 = add i32 %.03337, 21
  br label %.thread.i

55:                                               ; preds = %29
  %56 = load i32, ptr @hf_nasdaq_soup_reject_code, align 4
  %57 = call ptr @proto_tree_add_item(ptr noundef %38, i32 noundef %56, ptr noundef %0, i32 noundef %42, i32 noundef 1, i32 noundef 0)
  %58 = add i32 %.03337, 2
  br label %.thread.i

59:                                               ; preds = %29, %29
  %60 = icmp sgt i32 %17, 1
  %61 = load ptr, ptr @nasdaq_itch_handle, align 8
  %62 = icmp ne ptr %61, null
  %or.cond.i = select i1 %60, i1 %62, i1 false
  br i1 %or.cond.i, label %63, label %66

63:                                               ; preds = %59
  %64 = add nsw i32 %17, -1
  %65 = call ptr @tvb_new_subset_length(ptr noundef %0, i32 noundef %42, i32 noundef %64)
  br label %90

66:                                               ; preds = %59
  %67 = load i32, ptr @hf_nasdaq_soup_message, align 4
  %68 = add i32 %17, -1
  %69 = call ptr @proto_tree_add_item(ptr noundef %38, i32 noundef %67, ptr noundef %0, i32 noundef %42, i32 noundef %68, i32 noundef 0)
  br label %90

70:                                               ; preds = %29
  %71 = load i32, ptr @hf_nasdaq_soup_username, align 4
  %72 = call ptr @proto_tree_add_item(ptr noundef %38, i32 noundef %71, ptr noundef %0, i32 noundef %42, i32 noundef 6, i32 noundef 0)
  %73 = add i32 %.03337, 7
  %74 = load i32, ptr @hf_nasdaq_soup_password, align 4
  %75 = call ptr @proto_tree_add_item(ptr noundef %38, i32 noundef %74, ptr noundef %0, i32 noundef %73, i32 noundef 10, i32 noundef 0)
  %76 = add i32 %.03337, 17
  %77 = load i32, ptr @hf_nasdaq_soup_session, align 4
  %78 = call ptr @proto_tree_add_item(ptr noundef %38, i32 noundef %77, ptr noundef %0, i32 noundef %76, i32 noundef 10, i32 noundef 0)
  %79 = add i32 %.03337, 27
  %80 = load i32, ptr @hf_nasdaq_soup_seq_number, align 4
  %81 = call ptr @proto_tree_add_item(ptr noundef %38, i32 noundef %80, ptr noundef %0, i32 noundef %79, i32 noundef 10, i32 noundef 0)
  %82 = add i32 %.03337, 37
  br label %.thread.i

83:                                               ; preds = %29
  %84 = load i32, ptr @hf_nasdaq_soup_message, align 4
  %85 = add i32 %17, -1
  %86 = call ptr @proto_tree_add_item(ptr noundef %38, i32 noundef %84, ptr noundef %0, i32 noundef %42, i32 noundef %85, i32 noundef 0)
  %87 = add i32 %17, %.03337
  br label %.thread.i

.thread.i:                                        ; preds = %83, %70, %55, %48, %43, %29, %29, %29
  %.064.ph.i = phi i32 [ %47, %43 ], [ %54, %48 ], [ %58, %55 ], [ %82, %70 ], [ %42, %29 ], [ %42, %29 ], [ %42, %29 ], [ %87, %83 ]
  %88 = load i32, ptr @hf_nasdaq_soup_packet_eol, align 4
  %89 = call ptr @proto_tree_add_item(ptr noundef %38, i32 noundef %88, ptr noundef %0, i32 noundef %.064.ph.i, i32 noundef 1, i32 noundef 0)
  br label %dissect_nasdaq_soup_packet.exit

90:                                               ; preds = %66, %63
  %.1.i = phi ptr [ %65, %63 ], [ null, %66 ]
  %91 = add i32 %17, %.03337
  %92 = load i32, ptr @hf_nasdaq_soup_packet_eol, align 4
  %93 = call ptr @proto_tree_add_item(ptr noundef %38, i32 noundef %92, ptr noundef %0, i32 noundef %91, i32 noundef 1, i32 noundef 0)
  %.not.i = icmp eq ptr %.1.i, null
  br i1 %.not.i, label %dissect_nasdaq_soup_packet.exit, label %94

94:                                               ; preds = %90
  %95 = load ptr, ptr @nasdaq_itch_handle, align 8
  %96 = call i32 @call_dissector(ptr noundef %95, ptr noundef nonnull %.1.i, ptr noundef %1, ptr noundef %2)
  br label %dissect_nasdaq_soup_packet.exit

dissect_nasdaq_soup_packet.exit:                  ; preds = %.thread.i, %90, %94
  %97 = load i32, ptr %5, align 4
  %98 = call zeroext i1 @tvb_offset_exists(ptr noundef %0, i32 noundef %97)
  br i1 %98, label %9, label %._crit_edge, !llvm.loop !8

._crit_edge:                                      ; preds = %dissect_nasdaq_soup_packet.exit, %4, %19
  %99 = call i32 @tvb_captured_length(ptr noundef %0)
  call void @llvm.lifetime.end.p0(i64 4, ptr nonnull %5) #3
  ret i32 %99
}